; Function Attrs: nounwind uwtable
define internal zeroext i1 @HIDAPI_JoystickSetSensorsEnabled(ptr noundef %0, i1 noundef zeroext %1) #0 {
  tail call void @SDL_AssertJoysticksLocked() #9
  %.not.i = icmp eq ptr %0, null
  br i1 %.not.i, label %15, label %3

3:                                                ; preds = %2
  %4 = getelementptr inbounds nuw i8, ptr %0, i64 328
  %5 = load ptr, ptr %4, align 8
  %.not9.i = icmp eq ptr %5, null
  br i1 %.not9.i, label %15, label %6

6:                                                ; preds = %3
  %7 = load ptr, ptr %5, align 8
  %8 = tail call zeroext i1 @SDL_ObjectValid(ptr noundef %7, i32 noundef 9) #9
  br i1 %8, label %9, label %15

9:                                                ; preds = %6
  %10 = getelementptr inbounds nuw i8, ptr %7, i64 104
  %11 = load ptr, ptr %10, align 8
  %.not10.i = icmp eq ptr %11, null
  br i1 %.not10.i, label %15, label %HIDAPI_GetJoystickDevice.exit

HIDAPI_GetJoystickDevice.exit:                    ; preds = %9
  %12 = getelementptr inbounds nuw i8, ptr %11, i64 128
  %13 = load ptr, ptr %12, align 8
  %14 = tail call zeroext i1 %13(ptr noundef nonnull %7, ptr noundef nonnull %0, i1 noundef zeroext %1) #9
  br label %17

15:                                               ; preds = %9, %6, %3, %2
  %16 = tail call zeroext i1 (ptr, ...) @SDL_SetError_REAL(ptr noundef nonnull @.str.35) #9
  br label %17

17:                                               ; preds = %15, %HIDAPI_GetJoystickDevice.exit
  %.0.in = phi i1 [ %14, %HIDAPI_GetJoystickDevice.exit ], [ %16, %15 ]
  ret i1 %.0.in
}